target datalayout = "e-m:e-p270:32:32-p271:32:32-p272:64:64-i64:64-i128:128-f80:128-n8:16:32:64-S128"
target triple = "x86_64-pc-linux-gnu"

%struct.xcgroup_t = type { ptr, ptr, ptr, i32, i32, i32 }
%struct.cgroup_limits_t = type { ptr, i32, ptr, ptr, i64, i64, i8, %struct.gres_device_id_t, i64, i64, i64, i64 }
%struct.gres_device_id_t = type { i32, i32, i32 }

@int_cg = internal global [5 x [9 x %struct.xcgroup_t]] zeroinitializer, align 16
@.str.9 = private unnamed_addr constant [34 x i8] c"cgroup subsystem %u not supported\00", align 1
@.str.24 = private unnamed_addr constant [12 x i8] c"cgroup_v1.c\00", align 1
@__func__.cgroup_p_constrain_get = private unnamed_addr constant [23 x i8] c"cgroup_p_constrain_get\00", align 1
@.str.25 = private unnamed_addr constant [12 x i8] c"cpuset.cpus\00", align 1
@.str.26 = private unnamed_addr constant [12 x i8] c"cpuset.mems\00", align 1

; Function Attrs: nounwind uwtable
define dso_local ptr @cgroup_p_constrain_get(i32 noundef %0, i32 noundef %1) #0 {
  %3 = alloca ptr, align 8
  %4 = alloca i32, align 4
  %5 = alloca i32, align 4
  %6 = alloca i32, align 4
  %7 = alloca ptr, align 8
  %8 = alloca i32, align 4
  store i32 %0, ptr %4, align 4
  store i32 %1, ptr %5, align 4
  call void @llvm.lifetime.start.p0(i64 4, ptr %6) #7
  store i32 0, ptr %6, align 4
  call void @llvm.lifetime.start.p0(i64 8, ptr %7) #7
  %9 = call ptr @slurm_xcalloc(i64 noundef 1, i64 noundef 96, i1 noundef zeroext true, i1 noundef zeroext false, ptr noundef @.str.24, i32 noundef 887, ptr noundef @__func__.cgroup_p_constrain_get)
  store ptr %9, ptr %7, align 8
  %10 = load i32, ptr %4, align 4
  switch i32 %10, label %73 [
    i32 0, label %76
    i32 1, label %11
    i32 2, label %72
    i32 3, label %72
  ]

11:                                               ; preds = %2
  %12 = load i32, ptr %4, align 4
  %13 = zext i32 %12 to i64
  %14 = getelementptr inbounds nuw [5 x [9 x %struct.xcgroup_t]], ptr @int_cg, i64 0, i64 %13
  %15 = load i32, ptr %5, align 4
  %16 = zext i32 %15 to i64
  %17 = getelementptr inbounds nuw [9 x %struct.xcgroup_t], ptr %14, i64 0, i64 %16
  %18 = load ptr, ptr %7, align 8
  %19 = getelementptr inbounds nuw %struct.cgroup_limits_t, ptr %18, i32 0, i32 2
  %20 = load ptr, ptr %7, align 8
  %21 = getelementptr inbounds nuw %struct.cgroup_limits_t, ptr %20, i32 0, i32 4
  %22 = call i32 @common_cgroup_get_param(ptr noundef %17, ptr noundef @.str.25, ptr noundef %19, ptr noundef %21)
  %23 = icmp ne i32 %22, 0
  br i1 %23, label %24, label %25

24:                                               ; preds = %11
  store i32 -1, ptr %6, align 4
  br label %25

25:                                               ; preds = %24, %11
  %26 = load i32, ptr %4, align 4
  %27 = zext i32 %26 to i64
  %28 = getelementptr inbounds nuw [5 x [9 x %struct.xcgroup_t]], ptr @int_cg, i64 0, i64 %27
  %29 = load i32, ptr %5, align 4
  %30 = zext i32 %29 to i64
  %31 = getelementptr inbounds nuw [9 x %struct.xcgroup_t], ptr %28, i64 0, i64 %30
  %32 = load ptr, ptr %7, align 8
  %33 = getelementptr inbounds nuw %struct.cgroup_limits_t, ptr %32, i32 0, i32 3
  %34 = load ptr, ptr %7, align 8
  %35 = getelementptr inbounds nuw %struct.cgroup_limits_t, ptr %34, i32 0, i32 5
  %36 = call i32 @common_cgroup_get_param(ptr noundef %31, ptr noundef @.str.26, ptr noundef %33, ptr noundef %35)
  %37 = icmp ne i32 %36, 0
  br i1 %37, label %38, label %39

38:                                               ; preds = %25
  store i32 -1, ptr %6, align 4
  br label %39

39:                                               ; preds = %38, %25
  %40 = load ptr, ptr %7, align 8
  %41 = getelementptr inbounds nuw %struct.cgroup_limits_t, ptr %40, i32 0, i32 4
  %42 = load i64, ptr %41, align 8
  %43 = icmp ugt i64 %42, 0
  br i1 %43, label %44, label %53

44:                                               ; preds = %39
  %45 = load ptr, ptr %7, align 8
  %46 = getelementptr inbounds nuw %struct.cgroup_limits_t, ptr %45, i32 0, i32 2
  %47 = load ptr, ptr %46, align 8
  %48 = load ptr, ptr %7, align 8
  %49 = getelementptr inbounds nuw %struct.cgroup_limits_t, ptr %48, i32 0, i32 4
  %50 = load i64, ptr %49, align 8
  %51 = sub i64 %50, 1
  %52 = getelementptr inbounds nuw i8, ptr %47, i64 %51
  store i8 0, ptr %52, align 1
  br label %53

53:                                               ; preds = %44, %39
  %54 = load ptr, ptr %7, align 8
  %55 = getelementptr inbounds nuw %struct.cgroup_limits_t, ptr %54, i32 0, i32 5
  %56 = load i64, ptr %55, align 8
  %57 = icmp ugt i64 %56, 0
  br i1 %57, label %58, label %67

58:                                               ; preds = %53
  %59 = load ptr, ptr %7, align 8
  %60 = getelementptr inbounds nuw %struct.cgroup_limits_t, ptr %59, i32 0, i32 3
  %61 = load ptr, ptr %60, align 8
  %62 = load ptr, ptr %7, align 8
  %63 = getelementptr inbounds nuw %struct.cgroup_limits_t, ptr %62, i32 0, i32 5
  %64 = load i64, ptr %63, align 8
  %65 = sub i64 %64, 1
  %66 = getelementptr inbounds nuw i8, ptr %61, i64 %65
  store i8 0, ptr %66, align 1
  br label %67

67:                                               ; preds = %58, %53
  %68 = load i32, ptr %6, align 4
  %69 = icmp ne i32 %68, 0
  br i1 %69, label %70, label %71

70:                                               ; preds = %67
  br label %78

71:                                               ; preds = %67
  br label %76

72:                                               ; preds = %2, %2
  br label %76

73:                                               ; preds = %2
  %74 = load i32, ptr %4, align 4
  %75 = call i32 (ptr, ...) @error(ptr noundef @.str.9, i32 noundef %74)
  store i32 -1, ptr %6, align 4
  br label %76

76:                                               ; preds = %73, %72, %71, %2
  %77 = load ptr, ptr %7, align 8
  store ptr %77, ptr %3, align 8
  store i32 1, ptr %8, align 4
  br label %80

78:                                               ; preds = %70
  %79 = load ptr, ptr %7, align 8
  call void @cgroup_free_limits(ptr noundef %79)
  store ptr null, ptr %3, align 8
  store i32 1, ptr %8, align 4
  br label %80

80:                                               ; preds = %78, %76
  call void @llvm.lifetime.end.p0(i64 8, ptr %7) #7
  call void @llvm.lifetime.end.p0(i64 4, ptr %6) #7
  %81 = load ptr, ptr %3, align 8
  ret ptr %81
}