; Function Attrs: nounwind uwtable
define dso_local ptr @cgroup_p_constrain_get(i32 noundef %0, i32 noundef %1) local_unnamed_addr #0 {
  %3 = tail call ptr @slurm_xcalloc(i64 noundef 1, i64 noundef 96, i1 noundef zeroext true, i1 noundef zeroext false, ptr noundef nonnull @.str.24, i32 noundef 887, ptr noundef nonnull @__func__.cgroup_p_constrain_get) #11
  switch i32 %0, label %25 [
    i32 0, label %28
    i32 1, label %4
    i32 2, label %28
    i32 3, label %28
  ]

4:                                                ; preds = %2
  %5 = zext i32 %1 to i64
  %6 = getelementptr inbounds nuw [9 x %struct.xcgroup_t], ptr getelementptr inbounds nuw (i8, ptr @int_cg, i64 360), i64 0, i64 %5
  %7 = getelementptr inbounds nuw i8, ptr %3, i64 16
  %8 = getelementptr inbounds nuw i8, ptr %3, i64 32
  %9 = tail call i32 @common_cgroup_get_param(ptr noundef nonnull %6, ptr noundef nonnull @.str.25, ptr noundef nonnull %7, ptr noundef nonnull %8) #11
  %.not = icmp eq i32 %9, 0
  %10 = getelementptr inbounds nuw i8, ptr %3, i64 24
  %11 = getelementptr inbounds nuw i8, ptr %3, i64 40
  %12 = tail call i32 @common_cgroup_get_param(ptr noundef nonnull %6, ptr noundef nonnull @.str.26, ptr noundef nonnull %10, ptr noundef nonnull %11) #11
  %.not23 = icmp eq i32 %12, 0
  %narrow.not = select i1 %.not23, i1 %.not, i1 false
  %13 = load i64, ptr %8, align 8
  %.not24 = icmp eq i64 %13, 0
  br i1 %.not24, label %18, label %14

14:                                               ; preds = %4
  %15 = load ptr, ptr %7, align 8
  %16 = getelementptr i8, ptr %15, i64 %13
  %17 = getelementptr i8, ptr %16, i64 -1
  store i8 0, ptr %17, align 1
  br label %18

18:                                               ; preds = %14, %4
  %19 = load i64, ptr %11, align 8
  %.not25 = icmp eq i64 %19, 0
  br i1 %.not25, label %24, label %20

20:                                               ; preds = %18
  %21 = load ptr, ptr %10, align 8
  %22 = getelementptr i8, ptr %21, i64 %19
  %23 = getelementptr i8, ptr %22, i64 -1
  store i8 0, ptr %23, align 1
  br label %24

24:                                               ; preds = %20, %18
  br i1 %narrow.not, label %28, label %27

25:                                               ; preds = %2
  %26 = tail call i32 (ptr, ...) @error(ptr noundef nonnull @.str.9, i32 noundef %0) #11
  br label %28

27:                                               ; preds = %24
  tail call void @cgroup_free_limits(ptr noundef nonnull %3) #11
  br label %28

28:                                               ; preds = %2, %25, %24, %2, %2, %27
  %.0 = phi ptr [ null, %27 ], [ %3, %2 ], [ %3, %2 ], [ %3, %24 ], [ %3, %25 ], [ %3, %2 ]
  ret ptr %.0
}